target datalayout = "e-m:e-p270:32:32-p271:32:32-p272:64:64-i64:64-i128:128-f80:128-n8:16:32:64-S128"
target triple = "x86_64-pc-linux-gnu"

@ff_vp9_subpel_filters = hidden constant [3 x [16 x [8 x i16]]] [[16 x [8 x i16]] [[8 x i16] [i16 0, i16 0, i16 0, i16 128, i16 0, i16 0, i16 0, i16 0], [8 x i16] [i16 -3, i16 -1, i16 32, i16 64, i16 38, i16 1, i16 -3, i16 0], [8 x i16] [i16 -2, i16 -2, i16 29, i16 63, i16 41, i16 2, i16 -3, i16 0], [8 x i16] [i16 -2, i16 -2, i16 26, i16 63, i16 43, i16 4, i16 -4, i16 0], [8 x i16] [i16 -2, i16 -3, i16 24, i16 62, i16 46, i16 5, i16 -4, i16 0], [8 x i16] [i16 -2, i16 -3, i16 21, i16 60, i16 49, i16 7, i16 -4, i16 0], [8 x i16] [i16 -1, i16 -4, i16 18, i16 59, i16 51, i16 9, i16 -4, i16 0], [8 x i16] [i16 -1, i16 -4, i16 16, i16 57, i16 53, i16 12, i16 -4, i16 -1], [8 x i16] [i16 -1, i16 -4, i16 14, i16 55, i16 55, i16 14, i16 -4, i16 -1], [8 x i16] [i16 -1, i16 -4, i16 12, i16 53, i16 57, i16 16, i16 -4, i16 -1], [8 x i16] [i16 0, i16 -4, i16 9, i16 51, i16 59, i16 18, i16 -4, i16 -1], [8 x i16] [i16 0, i16 -4, i16 7, i16 49, i16 60, i16 21, i16 -3, i16 -2], [8 x i16] [i16 0, i16 -4, i16 5, i16 46, i16 62, i16 24, i16 -3, i16 -2], [8 x i16] [i16 0, i16 -4, i16 4, i16 43, i16 63, i16 26, i16 -2, i16 -2], [8 x i16] [i16 0, i16 -3, i16 2, i16 41, i16 63, i16 29, i16 -2, i16 -2], [8 x i16] [i16 0, i16 -3, i16 1, i16 38, i16 64, i16 32, i16 -1, i16 -3]], [16 x [8 x i16]] [[8 x i16] [i16 0, i16 0, i16 0, i16 128, i16 0, i16 0, i16 0, i16 0], [8 x i16] [i16 0, i16 1, i16 -5, i16 126, i16 8, i16 -3, i16 1, i16 0], [8 x i16] [i16 -1, i16 3, i16 -10, i16 122, i16 18, i16 -6, i16 2, i16 0], [8 x i16] [i16 -1, i16 4, i16 -13, i16 118, i16 27, i16 -9, i16 3, i16 -1], [8 x i16] [i16 -1, i16 4, i16 -16, i16 112, i16 37, i16 -11, i16 4, i16 -1], [8 x i16] [i16 -1, i16 5, i16 -18, i16 105, i16 48, i16 -14, i16 4, i16 -1], [8 x i16] [i16 -1, i16 5, i16 -19, i16 97, i16 58, i16 -16, i16 5, i16 -1], [8 x i16] [i16 -1, i16 6, i16 -19, i16 88, i16 68, i16 -18, i16 5, i16 -1], [8 x i16] [i16 -1, i16 6, i16 -19, i16 78, i16 78, i16 -19, i16 6, i16 -1], [8 x i16] [i16 -1, i16 5, i16 -18, i16 68, i16 88, i16 -19, i16 6, i16 -1], [8 x i16] [i16 -1, i16 5, i16 -16, i16 58, i16 97, i16 -19, i16 5, i16 -1], [8 x i16] [i16 -1, i16 4, i16 -14, i16 48, i16 105, i16 -18, i16 5, i16 -1], [8 x i16] [i16 -1, i16 4, i16 -11, i16 37, i16 112, i16 -16, i16 4, i16 -1], [8 x i16] [i16 -1, i16 3, i16 -9, i16 27, i16 118, i16 -13, i16 4, i16 -1], [8 x i16] [i16 0, i16 2, i16 -6, i16 18, i16 122, i16 -10, i16 3, i16 -1], [8 x i16] [i16 0, i16 1, i16 -3, i16 8, i16 126, i16 -5, i16 1, i16 0]], [16 x [8 x i16]] [[8 x i16] [i16 0, i16 0, i16 0, i16 128, i16 0, i16 0, i16 0, i16 0], [8 x i16] [i16 -1, i16 3, i16 -7, i16 127, i16 8, i16 -3, i16 1, i16 0], [8 x i16] [i16 -2, i16 5, i16 -13, i16 125, i16 17, i16 -6, i16 3, i16 -1], [8 x i16] [i16 -3, i16 7, i16 -17, i16 121, i16 27, i16 -10, i16 5, i16 -2], [8 x i16] [i16 -4, i16 9, i16 -20, i16 115, i16 37, i16 -13, i16 6, i16 -2], [8 x i16] [i16 -4, i16 10, i16 -23, i16 108, i16 48, i16 -16, i16 8, i16 -3], [8 x i16] [i16 -4, i16 10, i16 -24, i16 100, i16 59, i16 -19, i16 9, i16 -3], [8 x i16] [i16 -4, i16 11, i16 -24, i16 90, i16 70, i16 -21, i16 10, i16 -4], [8 x i16] [i16 -4, i16 11, i16 -23, i16 80, i16 80, i16 -23, i16 11, i16 -4], [8 x i16] [i16 -4, i16 10, i16 -21, i16 70, i16 90, i16 -24, i16 11, i16 -4], [8 x i16] [i16 -3, i16 9, i16 -19, i16 59, i16 100, i16 -24, i16 10, i16 -4], [8 x i16] [i16 -3, i16 8, i16 -16, i16 48, i16 108, i16 -23, i16 10, i16 -4], [8 x i16] [i16 -2, i16 6, i16 -13, i16 37, i16 115, i16 -20, i16 9, i16 -4], [8 x i16] [i16 -2, i16 5, i16 -10, i16 27, i16 121, i16 -17, i16 7, i16 -3], [8 x i16] [i16 -1, i16 3, i16 -6, i16 17, i16 125, i16 -13, i16 5, i16 -2], [8 x i16] [i16 0, i16 1, i16 -3, i16 8, i16 127, i16 -7, i16 3, i16 -1]]], align 16
@.str = private unnamed_addr constant [30 x i8] c"Assertion %s failed at %s:%d\0A\00", align 1
@.str.1 = private unnamed_addr constant [10 x i8] c"bpp == 12\00", align 1
@.str.2 = private unnamed_addr constant [20 x i8] c"libavcodec/vp9dsp.c\00", align 1

; Function Attrs: cold nounwind optsize uwtable
define void @ff_vp9dsp_init(ptr noundef %0, i32 noundef %1, i32 noundef %2) #0 {
  %4 = alloca ptr, align 8
  %5 = alloca i32, align 4
  %6 = alloca i32, align 4
  store ptr %0, ptr %4, align 8, !tbaa !4
  store i32 %1, ptr %5, align 4, !tbaa !9
  store i32 %2, ptr %6, align 4, !tbaa !9
  %7 = load i32, ptr %5, align 4, !tbaa !9
  %8 = icmp eq i32 %7, 8
  br i1 %8, label %9, label %11

9:                                                ; preds = %3
  %10 = load ptr, ptr %4, align 8, !tbaa !4
  call void @ff_vp9dsp_init_8(ptr noundef %10)
  br label %25

11:                                               ; preds = %3
  %12 = load i32, ptr %5, align 4, !tbaa !9
  %13 = icmp eq i32 %12, 10
  br i1 %13, label %14, label %16

14:                                               ; preds = %11
  %15 = load ptr, ptr %4, align 8, !tbaa !4
  call void @ff_vp9dsp_init_10(ptr noundef %15)
  br label %24

16:                                               ; preds = %11
  br label %17

17:                                               ; preds = %16
  %18 = load i32, ptr %5, align 4, !tbaa !9
  %19 = icmp eq i32 %18, 12
  br i1 %19, label %21, label %20

20:                                               ; preds = %17
  call void (ptr, i32, ptr, ...) @av_log(ptr noundef null, i32 noundef 0, ptr noundef @.str, ptr noundef @.str.1, ptr noundef @.str.2, i32 noundef 95)
  call void @abort() #3
  unreachable

21:                                               ; preds = %17
  br label %22

22:                                               ; preds = %21
  %23 = load ptr, ptr %4, align 8, !tbaa !4
  call void @ff_vp9dsp_init_12(ptr noundef %23)
  br label %24

24:                                               ; preds = %22, %14
  br label %25

25:                                               ; preds = %24, %9
  ret void
}

declare void @ff_vp9dsp_init_8(ptr noundef) #1

declare void @ff_vp9dsp_init_10(ptr noundef) #1

declare void @av_log(ptr noundef, i32 noundef, ptr noundef, ...) #1

; Function Attrs: noreturn nounwind
declare void @abort() #2

declare void @ff_vp9dsp_init_12(ptr noundef) #1


!llvm.module.flags = !{!0, !1, !2, !3}

!0 = !{i32 1, !"wchar_size", i32 4}
!1 = !{i32 8, !"PIC Level", i32 2}
!2 = !{i32 7, !"uwtable", i32 2}
!3 = !{i32 1, !"override-stack-alignment", i32 16}
!4 = !{!5, !5, i64 0}
!5 = !{!"p1 _ZTS13VP9DSPContext", !6, i64 0}
!6 = !{!"any pointer", !7, i64 0}
!7 = !{!"omnipotent char", !8, i64 0}
!8 = !{!"Simple C/C++ TBAA"}
!9 = !{!10, !10, i64 0}
!10 = !{!"int", !7, i64 0}
